; Function Attrs: nounwind uwtable
define internal fastcc noalias nonnull ptr @_init_l___private_Lake_Util_Log_0__Lake_reprLogLevel____x40_Lake_Util_Log___hyg_509____closed__22() unnamed_addr #1 {
  %1 = load ptr, ptr @l___private_Lake_Util_Log_0__Lake_reprLogLevel____x40_Lake_Util_Log___hyg_509____closed__21, align 8, !tbaa !10
  tail call void @lean_inc_heartbeat() #9
  %2 = tail call noalias ptr @mi_malloc_small(i64 noundef 24) #9
  %3 = icmp eq ptr %2, null
  br i1 %3, label %4, label %lean_alloc_ctor.exit

4:                                                ; preds = %0
  tail call void @lean_internal_panic_out_of_memory() #10
  unreachable

lean_alloc_ctor.exit:                             ; preds = %0
  %5 = getelementptr inbounds nuw i8, ptr %2, i64 4
  %6 = getelementptr inbounds nuw i8, ptr %2, i64 16
  store i64 0, ptr %6, align 8, !tbaa !16
  store i32 1, ptr %2, align 4, !tbaa !4
  store i32 100728856, ptr %5, align 4
  %7 = getelementptr inbounds nuw i8, ptr %2, i64 8
  store ptr %1, ptr %7, align 8, !tbaa !10
  ret ptr %2
}